# our own stuff

{
  clip_Cond
  Memcheck:Cond
  fun:_Z4clipIdET_S0_S0_S0_
}

# libm
{
   libm_Cond
   Memcheck:Cond
   obj:/lib/libm*
}


# Open GL
{
   libGL_Addr
   Memcheck:Addr4
   obj:/usr/*/libGL*
}

{
   libGL_Val
   Memcheck:Value4
   obj:/usr/*/libGL*
}

{
   libGL_Val64
   Memcheck:Value8
   obj:/usr/*/libGL*
}

{
   libGL_Cond
   Memcheck:Cond
   obj:/usr/*/libGL*
}

{
   libGL_Cond64
   Memcheck:Cond
   obj:/usr/*/libGL*
}


{
   libGL_Syscall
   Memcheck:Param
   obj:/usr/lib/libGL*
   obj:/usr/lib64/libGL*
}



{
   nvidia1
   Memcheck:Param
   ioctl(generic)
   fun:ioctl
   fun:_nv000110gl
}

{
   gl_memleak1
   Memcheck:Leak
   fun:malloc
   obj:/usr/lib/libGL*
   obj:/usr/lib64/libGL*
}



# X11 und libc
{
   libC_vector
   Memcheck:Param
   writev(vector[...])
   fun:do_writev
   obj:/usr/X11R6/lib/libX11.so*
}

{
   Xmemleak
   Memcheck:Leak
   fun:malloc
   obj:/usr/X11R6/lib/libX11.so*
}

{
   Xmemleak
   Memcheck:Leak
   fun:malloc
   obj:/usr/X11R6/lib/libXcursor.so*
}

# libdricore
{
   libdricore9_Cond
   Memcheck:Cond
   obj:/usr/lib/*/libdricore*
}


# ode
{
   ode_body_remove_addr
   Memcheck:Addr4
   fun:_ZN6dxGeom10bodyRemoveEv
}
{
   ode_transform
   Memcheck:Addr4
   fun:_ZN15dxGeomTransformD0Ev
}

{
   ode_geom_from_transform4
   Memcheck:Addr4
   fun:_ZN6dxGeomD0Ev
   fun:_ZN15dxGeomTransformD0Ev
}

{
   ode_geom_from_transform1
   Memcheck:Addr1
   fun:_ZN6dxGeomD0Ev
   fun:_ZN15dxGeomTransformD0Ev
}

 


# osg
{
   osg_producer
   Memcheck:Addr4
   fun:_ZNSt8_Rb_treeImSt4pairIKmN8Producer11KeyboardKeyEESt10_Select1stIS4_ESt4lessImESaIS4_EE11lower_boundERS1_
}

{
   osg_ref_addr4
   Memcheck:Addr4
   fun:_ZNK3osg10Referenced5unrefEv
}

{
   osg_prducer_leak
   Memcheck:Leak
   fun:_Znwj
   fun:_ZN8Producer11*
}


{
   osgAttribStack
   Memcheck:Leak
   fun:_Znwj
   fun:_ZN3osg5State14AttributeStackC1ERKS1_
   fun:_ZNSt8_Rb_treeISt4pairIN3osg14StateAttribute4TypeEjES0_IKS4_NS1_5State14AttributeStackEESt10_Select1stIS8_ESt4lessIS4_ESaIS8_EE9_M_insertEPSt18_Rb_tree_node_baseSG_RKS8_
}

{
   osgcullingset
   Memcheck:Leak
   fun:_Znwj
   fun:_ZN3osg10CullingSetC1ERKS0_
}

{
   osgpolytop
   Memcheck:Leak
   fun:_Znwj
   fun:_ZN3osg8PolytopeC1ERKS0_   
}

{
   osg_vector
   Memcheck:Leak
   fun:_Znwj
   fun:_ZNSt6vector*
}

{
   osg2
   Memcheck:Leak
   fun:_Znwj
   fun:_ZN5osgGA12EventVisitor8addEventEPNS_15GUIEventAdapterE
   fun:_ZN11osgProducer6Viewer6updateEv
   fun:_ZN9lpzrobots10Simulation3runEiPPc
   fun:main
}
{
   osg3
   Memcheck:Leak
   fun:_Znwj
   fun:_ZN11osgProducer6Viewer7realizeEv
   fun:_ZN9lpzrobots10Simulation3runEiPPc
   fun:main
}
{
   osg4
   Memcheck:Leak
   fun:_Znwj
   fun:_ZN3osg14buffered_valueINS_7ref_ptrINS_6Shader16PerContextShaderEEEEC1Ev
   fun:_ZN3osg6ShaderC1ENS0_4TypeERKSs
   fun:_ZN9lpzrobots4Base19createShadowedSceneEPN3osg4NodeENS1_5Vec3fEj
   fun:_ZN9lpzrobots4Base9makeSceneEv
   fun:_ZN9lpzrobots10Simulation4initEiPPc
   fun:_ZN9lpzrobots10Simulation3runEiPPc
   fun:main
}
{
   osg5
   Memcheck:Leak
   fun:_Znwj
   fun:_ZN8Producer13RenderSurfaceC1Ev
   fun:_ZN8Producer6CameraC1Ev
   fun:_ZN8Producer12CameraConfig13defaultConfigEv
   fun:_ZN8Producer11CameraGroupC2ERKSs
   fun:_ZN11osgProducer14OsgCameraGroupC2ERN3osg14ArgumentParserE
   fun:_ZN11osgProducer6ViewerC2ERN3osg14ArgumentParserE
   fun:_ZN9lpzrobots14ExtendedViewerC1ERN3osg14ArgumentParserE
   fun:_ZN9lpzrobots10Simulation4initEiPPc
   fun:_ZN9lpzrobots10Simulation3runEiPPc
   fun:main
}
{
   osg6
   Memcheck:Leak
   fun:_Znwj
   fun:_ZN11osgProducer6Viewer7realizeEv
   fun:_ZN9lpzrobots10Simulation3runEiPPc
   fun:main
}
{
   x11_2
   Memcheck:Leak
   fun:malloc
   fun:XRenderFindDisplay
   fun:XRenderQueryExtension
   fun:_XcursorGetDisplayInfo
   fun:XcursorSupportsARGB
   fun:XcursorTryShapeCursor
   fun:XCreateGlyphCursor
   fun:XCreateFontCursor
   fun:_ZN8Producer13RenderSurface5_initEv
   fun:_ZN8Producer13RenderSurface7realizeEPNS_13VisualChooserEP15__GLXcontextRec
   fun:_ZN8Producer11CameraGroup7realizeEv
   fun:_ZN11osgProducer14OsgCameraGroup7realizeEv
}
{
   x11_3
   Memcheck:Leak
   fun:malloc
   fun:XextAddDisplay
   obj:/usr/lib/libGL.so.1.0.9629
}
{
   osg7
   Memcheck:Leak
   fun:_Znwj
   fun:_ZNSt8_Rb_treeIN3osg7ref_ptrIKNS0_7Program17PerContextProgramEEES5_St9_IdentityIS5_ESt4lessIS5_ESaIS5_EE9_M_insertEPSt18_Rb_tree_node_baseSD_RKS5_
   fun:_ZNSt8_Rb_treeIN3osg7ref_ptrIKNS0_7Program17PerContextProgramEEES5_St9_IdentityIS5_ESt4lessIS5_ESaIS5_EE13insert_uniqueERKS5_
   fun:_ZNK3osg7Program5applyERNS_5StateE
   fun:_ZN3osg5State18applyAttributeListERSt3mapISt4pairINS_14StateAttribute4TypeEjENS0_14AttributeStackESt4lessIS5_ESaIS2_IKS5_S6_EEERKS1_IS5_S2_INS_7ref_ptrIS3_EEjES8_SaIS2_IS9_SG_EEE
   fun:_ZN3osg5State5applyEPKNS_8StateSetE
   fun:_ZN7osgUtil10RenderLeaf6renderERN3osg5StateEPS0_
   fun:_ZN7osgUtil9RenderBin18drawImplementationERN3osg5StateERPNS_10RenderLeafE
   fun:_ZN7osgUtil11RenderStage18drawImplementationERN3osg5StateERPNS_10RenderLeafE
   fun:_ZN7osgUtil9RenderBin4drawERN3osg5StateERPNS_10RenderLeafE
   fun:_ZN7osgUtil11RenderStage9drawInnerERN3osg5StateERPNS_10RenderLeafERb
   fun:_ZN7osgUtil11RenderStage4drawERN3osg5StateERPNS_10RenderLeafE
}
{
   x11_4
   Memcheck:Leak
   fun:malloc
   fun:XFixesFindDisplay
   fun:XFixesSetCursorName
   fun:XcursorImagesLoadCursor
   fun:XcursorTryShapeCursor
   fun:XCreateGlyphCursor
   fun:XCreateFontCursor
   fun:_ZN8Producer13RenderSurface5_initEv
   fun:_ZN8Producer13RenderSurface7realizeEPNS_13VisualChooserEP15__GLXcontextRec
   fun:_ZN8Producer11CameraGroup7realizeEv
   fun:_ZN11osgProducer14OsgCameraGroup7realizeEv
   fun:_ZN11osgProducer6Viewer7realizeEv
}
{
   osg8
   Memcheck:Leak
   fun:_Znwj
   fun:_ZNSt8_Rb_treeIjjSt9_IdentityIjESt4lessIjESaIjEE9_M_insertEPSt18_Rb_tree_node_baseS7_RKj
   fun:_ZNSt8_Rb_treeIjjSt9_IdentityIjESt4lessIjESaIjEE13insert_uniqueERKj
   fun:_ZN5osgDB13DatabasePager31setCompileGLObjectsForContextIDEjb
   fun:_ZN11osgProducer6Viewer7realizeEv
   fun:_ZN9lpzrobots10Simulation3runEiPPc
   fun:main
}
{
   osg9
   Memcheck:Leak
   fun:_Znwj
   fun:_ZN9__gnu_cxx13new_allocatorIN8Producer7ref_ptrINS1_6Camera8CallbackEEEE8allocateEjPKv
   fun:_ZNSt12_Vector_baseIN8Producer7ref_ptrINS0_6Camera8CallbackEEESaIS4_EE11_M_allocateEj
   fun:_ZNSt6vectorIN8Producer7ref_ptrINS0_6Camera8CallbackEEESaIS4_EE13_M_insert_auxEN9__gnu_cxx17__normal_iteratorIPS4_S6_EERKS4_
   fun:_ZN11osgProducer6Viewer7realizeEv
   fun:_ZN9lpzrobots10Simulation3runEiPPc
   fun:main
}
{
   osg10
   Memcheck:Leak
   fun:_Znwj
   fun:_ZNSt8_Rb_treeIPN3osg7ProgramES2_St9_IdentityIS2_ESt4lessIS2_ESaIS2_EE9_M_insertEPSt18_Rb_tree_node_baseSA_RKS2_
   fun:_ZNSt8_Rb_treeIPN3osg7ProgramES2_St9_IdentityIS2_ESt4lessIS2_ESaIS2_EE13insert_uniqueERKS2_
   fun:_ZN3osg6Shader13addProgramRefEPNS_7ProgramE
   fun:_ZN3osg7Program9addShaderEPNS_6ShaderE
   fun:_ZN9lpzrobots4Base19createShadowedSceneEPN3osg4NodeENS1_5Vec3fEj
   fun:_ZN9lpzrobots4Base9makeSceneEv
   fun:_ZN9lpzrobots10Simulation4initEiPPc
   fun:_ZN9lpzrobots10Simulation3runEiPPc
   fun:main
}
{
   osg11
   Memcheck:Leak
   fun:_Znwj
   fun:_ZN11osgProducer18ViewerEventHandlerC1EPNS_14OsgCameraGroupE
   fun:_ZN11osgProducer6Viewer11setUpViewerEj
}
{
   gl_leak
   Memcheck:Leak
   fun:calloc
   fun:_dlerror_run
   fun:dlopen@@GLIBC_2.1
   obj:/usr/lib/libGL.so.1.0.9629
}
{
   X11_leak2
   Memcheck:Leak
   fun:calloc
   fun:XkbGetMap
   obj:/usr/X11R6/lib/libX11.so.6.2
   fun:XKeycodeToKeysym
}
{
   X11_leak3
   Memcheck:Leak
   fun:calloc
   fun:_XcmsAddCmapRec
   fun:XCreateColormap
}
